; Function Attrs: nounwind uwtable
define void @Sbd_ManDerive_rec(ptr noundef %0, ptr noundef %1, i32 noundef %2, ptr noundef %3) local_unnamed_addr #2 {
  %5 = getelementptr i8, ptr %3, i64 8
  %.val37 = load ptr, ptr %5, align 8, !tbaa !49
  %6 = sext i32 %2 to i64
  %7 = getelementptr inbounds i32, ptr %.val37, i64 %6
  %8 = load i32, ptr %7, align 4, !tbaa !50
  %9 = lshr i32 %8, 1
  %10 = icmp slt i32 %8, 0
  %spec.select = select i1 %10, i32 %2, i32 %9
  %11 = getelementptr i8, ptr %1, i64 32
  %.val39 = load ptr, ptr %11, align 8, !tbaa !55
  %12 = sext i32 %spec.select to i64
  %13 = getelementptr inbounds %struct.Gia_Obj_t_, ptr %.val39, i64 %12
  %14 = getelementptr inbounds nuw i8, ptr %13, i64 8
  %15 = load i32, ptr %14, align 4, !tbaa !279
  %.not = icmp eq i32 %15, -1
  br i1 %.not, label %16, label %62

16:                                               ; preds = %4
  %.val40 = load i64, ptr %13, align 4
  %17 = trunc i64 %.val40 to i32
  %18 = and i32 %17, 536870911
  %19 = sub nsw i32 %spec.select, %18
  tail call void @Sbd_ManDerive_rec(ptr noundef %0, ptr noundef nonnull %1, i32 noundef %19, ptr noundef nonnull %3)
  %.val41 = load i64, ptr %13, align 4
  %20 = lshr i64 %.val41, 32
  %21 = trunc nuw i64 %20 to i32
  %22 = and i32 %21, 536870911
  %23 = sub nsw i32 %spec.select, %22
  tail call void @Sbd_ManDerive_rec(ptr noundef %0, ptr noundef nonnull %1, i32 noundef %23, ptr noundef nonnull %3)
  %.val42 = load i64, ptr %13, align 4
  %24 = and i64 %.val42, 2147483648
  %.not.i.i = icmp ne i64 %24, 0
  %25 = and i64 %.val42, 536870911
  %26 = icmp eq i64 %25, 536870911
  %narrow.i.not.i = or i1 %.not.i.i, %26
  %.pre = trunc i64 %.val42 to i32
  br i1 %narrow.i.not.i, label %.Gia_ObjIsXor.exit.thread_crit_edge, label %Gia_ObjIsXor.exit

.Gia_ObjIsXor.exit.thread_crit_edge:              ; preds = %16
  %.pre45 = lshr i64 %.val42, 32
  br label %Gia_ObjIsXor.exit.thread

Gia_ObjIsXor.exit:                                ; preds = %16
  %27 = and i32 %.pre, 536870911
  %28 = lshr i64 %.val42, 32
  %29 = trunc nuw i64 %28 to i32
  %30 = and i32 %29, 536870911
  %.not44 = icmp samesign ult i32 %27, %30
  br i1 %.not44, label %31, label %Gia_ObjIsXor.exit.thread

31:                                               ; preds = %Gia_ObjIsXor.exit
  %32 = sub nsw i64 0, %25
  %33 = getelementptr inbounds %struct.Gia_Obj_t_, ptr %13, i64 %32, i32 1
  %34 = load i32, ptr %33, align 4, !tbaa !279
  %35 = lshr i32 %.pre, 29
  %36 = and i32 %35, 1
  %37 = xor i32 %34, %36
  %38 = and i64 %28, 536870911
  %39 = sub nsw i64 0, %38
  %40 = getelementptr inbounds %struct.Gia_Obj_t_, ptr %13, i64 %39, i32 1
  %41 = load i32, ptr %40, align 4, !tbaa !279
  %42 = lshr i64 %.val42, 61
  %43 = trunc nuw nsw i64 %42 to i32
  %44 = and i32 %43, 1
  %45 = xor i32 %41, %44
  %46 = tail call i32 @Gia_ManHashXorReal(ptr noundef %0, i32 noundef %37, i32 noundef %45) #32
  br label %.sink.split

Gia_ObjIsXor.exit.thread:                         ; preds = %.Gia_ObjIsXor.exit.thread_crit_edge, %Gia_ObjIsXor.exit
  %.pre-phi46 = phi i64 [ %.pre45, %.Gia_ObjIsXor.exit.thread_crit_edge ], [ %28, %Gia_ObjIsXor.exit ]
  %47 = sub nsw i64 0, %25
  %48 = getelementptr inbounds %struct.Gia_Obj_t_, ptr %13, i64 %47, i32 1
  %49 = load i32, ptr %48, align 4, !tbaa !279
  %50 = lshr i32 %.pre, 29
  %51 = and i32 %50, 1
  %52 = xor i32 %49, %51
  %53 = and i64 %.pre-phi46, 536870911
  %54 = sub nsw i64 0, %53
  %55 = getelementptr inbounds %struct.Gia_Obj_t_, ptr %13, i64 %54, i32 1
  %56 = load i32, ptr %55, align 4, !tbaa !279
  %57 = lshr i64 %.val42, 61
  %58 = trunc nuw nsw i64 %57 to i32
  %59 = and i32 %58, 1
  %60 = xor i32 %56, %59
  %61 = tail call i32 @Gia_ManHashAnd(ptr noundef %0, i32 noundef %52, i32 noundef %60) #32
  br label %.sink.split

.sink.split:                                      ; preds = %Gia_ObjIsXor.exit.thread, %31
  %.sink = phi i32 [ %46, %31 ], [ %61, %Gia_ObjIsXor.exit.thread ]
  store i32 %.sink, ptr %14, align 4, !tbaa !279
  br label %62

62:                                               ; preds = %.sink.split, %4
  %63 = phi i32 [ %15, %4 ], [ %.sink, %.sink.split ]
  %.not35 = icmp eq i32 %spec.select, %2
  br i1 %.not35, label %70, label %64

64:                                               ; preds = %62
  %.val = load ptr, ptr %5, align 8, !tbaa !49
  %65 = getelementptr inbounds i32, ptr %.val, i64 %6
  %66 = load i32, ptr %65, align 4, !tbaa !50
  %67 = and i32 %66, 1
  %68 = xor i32 %67, %63
  %.val38 = load ptr, ptr %11, align 8, !tbaa !55
  %69 = getelementptr inbounds %struct.Gia_Obj_t_, ptr %.val38, i64 %6, i32 1
  store i32 %68, ptr %69, align 4, !tbaa !279
  br label %70

70:                                               ; preds = %64, %62
  ret void
}